; Function Attrs: nounwind uwtable
define nonnull ptr @l_Lean_hasInitAttr___boxed(ptr noundef %0, ptr noundef %1) local_unnamed_addr #0 {
  %3 = tail call ptr @lean_get_init_fn_name_for(ptr noundef %0, ptr noundef %1)
  %4 = ptrtoint ptr %3 to i64
  %5 = and i64 %4, 1
  %.not.i6.i = icmp eq i64 %5, 0
  br i1 %.not.i6.i, label %lean_obj_tag.exit.thread.i, label %lean_obj_tag.exit.i

lean_obj_tag.exit.i:                              ; preds = %2
  %6 = and i64 %4, 8589934590
  %.not = icmp eq i64 %6, 0
  %7 = select i1 %.not, i64 1, i64 3
  br label %l_Lean_hasInitAttr.exit

lean_obj_tag.exit.thread.i:                       ; preds = %2
  %8 = getelementptr i8, ptr %3, i64 4
  %.val.i.i = load i32, ptr %8, align 4
  %9 = icmp ult i32 %.val.i.i, 16777216
  br i1 %9, label %l_Lean_hasInitAttr.exit, label %.thread.i

.thread.i:                                        ; preds = %lean_obj_tag.exit.thread.i
  %10 = load i32, ptr %3, align 4, !tbaa !10
  %11 = icmp sgt i32 %10, 1
  br i1 %11, label %12, label %14, !prof !13

12:                                               ; preds = %.thread.i
  %13 = add nsw i32 %10, -1
  store i32 %13, ptr %3, align 4, !tbaa !10
  br label %l_Lean_hasInitAttr.exit

14:                                               ; preds = %.thread.i
  %.not.i.i = icmp eq i32 %10, 0
  br i1 %.not.i.i, label %l_Lean_hasInitAttr.exit, label %15

15:                                               ; preds = %14
  tail call void @lean_dec_ref_cold(ptr noundef nonnull %3) #5
  br label %l_Lean_hasInitAttr.exit

l_Lean_hasInitAttr.exit:                          ; preds = %lean_obj_tag.exit.i, %lean_obj_tag.exit.thread.i, %12, %14, %15
  %.0.i = phi i64 [ 1, %lean_obj_tag.exit.thread.i ], [ 3, %15 ], [ 3, %14 ], [ 3, %12 ], [ %7, %lean_obj_tag.exit.i ]
  %16 = inttoptr i64 %.0.i to ptr
  ret ptr %16
}